; Function Attrs: mustprogress nofree norecurse nosync nounwind willreturn memory(read, inaccessiblemem: none) uwtable
define noundef zeroext i1 @_ZNK4YAML6StreamcvbEv(ptr noundef nonnull readonly align 8 captures(none) dereferenceable(136) %0) local_unnamed_addr #7 align 2 {
  %2 = load ptr, ptr %0, align 8, !tbaa !57
  %3 = load ptr, ptr %2, align 8, !tbaa !22
  %4 = getelementptr i8, ptr %3, i64 -24
  %5 = load i64, ptr %4, align 8
  %6 = getelementptr inbounds i8, ptr %2, i64 %5
  %7 = getelementptr inbounds nuw i8, ptr %6, i64 32
  %8 = load i32, ptr %7, align 8, !tbaa !24
  %9 = icmp eq i32 %8, 0
  br i1 %9, label %40, label %10

10:                                               ; preds = %1
  %11 = getelementptr inbounds nuw i8, ptr %0, i64 80
  %12 = getelementptr inbounds nuw i8, ptr %0, i64 48
  %13 = load ptr, ptr %11, align 8, !tbaa !46
  %14 = load ptr, ptr %12, align 8, !tbaa !46
  %15 = icmp eq ptr %13, %14
  br i1 %15, label %40, label %16

16:                                               ; preds = %10
  %17 = getelementptr inbounds nuw i8, ptr %0, i64 56
  %18 = load ptr, ptr %17, align 8, !tbaa !47, !noalias !58
  %19 = getelementptr inbounds nuw i8, ptr %0, i64 72
  %20 = load ptr, ptr %19, align 8, !tbaa !45, !noalias !58
  %21 = ptrtoint ptr %14 to i64
  %22 = ptrtoint ptr %18 to i64
  %23 = sub i64 %21, %22
  %24 = icmp sgt i64 %23, -1
  br i1 %24, label %25, label %29

25:                                               ; preds = %16
  %26 = icmp samesign ult i64 %23, 512
  br i1 %26, label %_ZNSt5dequeIcSaIcEEixEm.exit, label %27

27:                                               ; preds = %25
  %28 = lshr i64 %23, 9
  br label %31

29:                                               ; preds = %16
  %30 = ashr i64 %23, 9
  br label %31

31:                                               ; preds = %29, %27
  %32 = phi i64 [ %28, %27 ], [ %30, %29 ]
  %33 = getelementptr inbounds ptr, ptr %20, i64 %32
  %34 = load ptr, ptr %33, align 8, !tbaa !52, !noalias !58
  %35 = shl nsw i64 %32, 9
  %36 = sub nsw i64 %23, %35
  %37 = getelementptr inbounds i8, ptr %34, i64 %36
  br label %_ZNSt5dequeIcSaIcEEixEm.exit

_ZNSt5dequeIcSaIcEEixEm.exit:                     ; preds = %25, %31
  %storemerge.i.i.i.i = phi ptr [ %37, %31 ], [ %14, %25 ]
  %38 = load i8, ptr %storemerge.i.i.i.i, align 1, !tbaa !36
  %39 = icmp ne i8 %38, 4
  br label %40

40:                                               ; preds = %10, %_ZNSt5dequeIcSaIcEEixEm.exit, %1
  %41 = phi i1 [ true, %1 ], [ false, %10 ], [ %39, %_ZNSt5dequeIcSaIcEEixEm.exit ]
  ret i1 %41
}